target datalayout = "e-m:e-p270:32:32-p271:32:32-p272:64:64-i64:64-i128:128-f80:128-n8:16:32:64-S128"
target triple = "x86_64-pc-linux-gnu"

%struct.uv_tcp_s = type { ptr, ptr, i32, ptr, [2 x ptr], %union.anon, ptr, i32, i64, ptr, ptr, ptr, ptr, %struct.uv__io_s, [2 x ptr], [2 x ptr], ptr, i32, i32, ptr }
%union.anon = type { [4 x ptr] }
%struct.uv__io_s = type { ptr, [2 x ptr], [2 x ptr], i32, i32, i32 }
%struct.sockaddr_storage = type { i16, [118 x i8], i64 }
%union.__SOCKADDR_ARG = type { ptr }
%union.__CONST_SOCKADDR_ARG = type { ptr }
%struct.sockaddr_in6 = type { i16, i16, i32, %struct.in6_addr, i32 }
%struct.in6_addr = type { %union.anon.4 }
%union.anon.4 = type { [4 x i32] }
%struct.sockaddr_in = type { i16, i16, %struct.in_addr, [8 x i8] }
%struct.in_addr = type { i32 }

; Function Attrs: nounwind uwtable
define internal i32 @new_socket(ptr noundef %0, i32 noundef %1, i64 noundef %2) #0 {
  %4 = alloca i32, align 4
  %5 = alloca ptr, align 8
  %6 = alloca i32, align 4
  %7 = alloca i64, align 8
  %8 = alloca %struct.sockaddr_storage, align 8
  %9 = alloca i32, align 4
  %10 = alloca i32, align 4
  %11 = alloca i32, align 4
  %12 = alloca i32, align 4
  %13 = alloca %union.__SOCKADDR_ARG, align 8
  %14 = alloca %union.__CONST_SOCKADDR_ARG, align 8
  store ptr %0, ptr %5, align 8, !tbaa !9
  store i32 %1, ptr %6, align 4, !tbaa !11
  store i64 %2, ptr %7, align 8, !tbaa !14
  call void @llvm.lifetime.start.p0(i64 128, ptr %8) #8
  call void @llvm.lifetime.start.p0(i64 4, ptr %9) #8
  call void @llvm.lifetime.start.p0(i64 4, ptr %10) #8
  call void @llvm.lifetime.start.p0(i64 4, ptr %11) #8
  %15 = load i32, ptr %6, align 4, !tbaa !11
  %16 = call i32 @uv__socket(i32 noundef %15, i32 noundef 1, i32 noundef 0)
  store i32 %16, ptr %11, align 4, !tbaa !11
  %17 = load i32, ptr %11, align 4, !tbaa !11
  %18 = icmp slt i32 %17, 0
  br i1 %18, label %19, label %21

19:                                               ; preds = %3
  %20 = load i32, ptr %11, align 4, !tbaa !11
  store i32 %20, ptr %4, align 4
  store i32 1, ptr %12, align 4
  br label %71

21:                                               ; preds = %3
  %22 = load i32, ptr %11, align 4, !tbaa !11
  store i32 %22, ptr %10, align 4, !tbaa !11
  %23 = load ptr, ptr %5, align 8, !tbaa !9
  %24 = load i32, ptr %10, align 4, !tbaa !11
  %25 = load i64, ptr %7, align 8, !tbaa !14
  %26 = trunc i64 %25 to i32
  %27 = call i32 @uv__stream_open(ptr noundef %23, i32 noundef %24, i32 noundef %26)
  store i32 %27, ptr %11, align 4, !tbaa !11
  %28 = load i32, ptr %11, align 4, !tbaa !11
  %29 = icmp ne i32 %28, 0
  br i1 %29, label %30, label %34

30:                                               ; preds = %21
  %31 = load i32, ptr %10, align 4, !tbaa !11
  %32 = call i32 @uv__close(i32 noundef %31)
  %33 = load i32, ptr %11, align 4, !tbaa !11
  store i32 %33, ptr %4, align 4
  store i32 1, ptr %12, align 4
  br label %71

34:                                               ; preds = %21
  %35 = load i64, ptr %7, align 8, !tbaa !14
  %36 = and i64 %35, 8192
  %37 = icmp ne i64 %36, 0
  br i1 %37, label %38, label %70

38:                                               ; preds = %34
  store i32 128, ptr %9, align 4, !tbaa !11
  call void @llvm.memset.p0.i64(ptr align 8 %8, i8 0, i64 128, i1 false)
  %39 = load ptr, ptr %5, align 8, !tbaa !9
  %40 = getelementptr inbounds nuw %struct.uv_tcp_s, ptr %39, i32 0, i32 13
  %41 = getelementptr inbounds nuw %struct.uv__io_s, ptr %40, i32 0, i32 5
  %42 = load i32, ptr %41, align 8, !tbaa !22
  store ptr %8, ptr %13, align 8, !tbaa !23
  %43 = getelementptr inbounds nuw %union.__SOCKADDR_ARG, ptr %13, i32 0, i32 0
  %44 = load ptr, ptr %43, align 8
  %45 = call i32 @getsockname(i32 noundef %42, ptr %44, ptr noundef %9) #8
  %46 = icmp ne i32 %45, 0
  br i1 %46, label %47, label %53

47:                                               ; preds = %38
  %48 = load i32, ptr %10, align 4, !tbaa !11
  %49 = call i32 @uv__close(i32 noundef %48)
  %50 = call ptr @__errno_location() #9
  %51 = load i32, ptr %50, align 4, !tbaa !11
  %52 = sub nsw i32 0, %51
  store i32 %52, ptr %4, align 4
  store i32 1, ptr %12, align 4
  br label %71

53:                                               ; preds = %38
  %54 = load ptr, ptr %5, align 8, !tbaa !9
  %55 = getelementptr inbounds nuw %struct.uv_tcp_s, ptr %54, i32 0, i32 13
  %56 = getelementptr inbounds nuw %struct.uv__io_s, ptr %55, i32 0, i32 5
  %57 = load i32, ptr %56, align 8, !tbaa !22
  store ptr %8, ptr %14, align 8, !tbaa !23
  %58 = load i32, ptr %9, align 4, !tbaa !11
  %59 = getelementptr inbounds nuw %union.__CONST_SOCKADDR_ARG, ptr %14, i32 0, i32 0
  %60 = load ptr, ptr %59, align 8
  %61 = call i32 @bind(i32 noundef %57, ptr %60, i32 noundef %58) #8
  %62 = icmp ne i32 %61, 0
  br i1 %62, label %63, label %69

63:                                               ; preds = %53
  %64 = load i32, ptr %10, align 4, !tbaa !11
  %65 = call i32 @uv__close(i32 noundef %64)
  %66 = call ptr @__errno_location() #9
  %67 = load i32, ptr %66, align 4, !tbaa !11
  %68 = sub nsw i32 0, %67
  store i32 %68, ptr %4, align 4
  store i32 1, ptr %12, align 4
  br label %71

69:                                               ; preds = %53
  br label %70

70:                                               ; preds = %69, %34
  store i32 0, ptr %4, align 4
  store i32 1, ptr %12, align 4
  br label %71

71:                                               ; preds = %70, %63, %47, %30, %19
  call void @llvm.lifetime.end.p0(i64 4, ptr %11) #8
  call void @llvm.lifetime.end.p0(i64 4, ptr %10) #8
  call void @llvm.lifetime.end.p0(i64 4, ptr %9) #8
  call void @llvm.lifetime.end.p0(i64 128, ptr %8) #8
  %72 = load i32, ptr %4, align 4
  ret i32 %72
}

; Function Attrs: nounwind uwtable
define internal i32 @maybe_new_socket(ptr noundef %0, i32 noundef %1, i64 noundef %2) #0 {
  %4 = alloca i32, align 4
  %5 = alloca ptr, align 8
  %6 = alloca i32, align 4
  %7 = alloca i64, align 8
  %8 = alloca %struct.sockaddr_storage, align 8
  %9 = alloca i32, align 4
  %10 = alloca i32, align 4
  %11 = alloca %union.__SOCKADDR_ARG, align 8
  %12 = alloca %union.__CONST_SOCKADDR_ARG, align 8
  store ptr %0, ptr %5, align 8, !tbaa !9
  store i32 %1, ptr %6, align 4, !tbaa !11
  store i64 %2, ptr %7, align 8, !tbaa !14
  call void @llvm.lifetime.start.p0(i64 128, ptr %8) #8
  call void @llvm.lifetime.start.p0(i64 4, ptr %9) #8
  %13 = load i32, ptr %6, align 4, !tbaa !11
  %14 = icmp eq i32 %13, 0
  br i1 %14, label %15, label %23

15:                                               ; preds = %3
  %16 = load i64, ptr %7, align 8, !tbaa !14
  %17 = load ptr, ptr %5, align 8, !tbaa !9
  %18 = getelementptr inbounds nuw %struct.uv_tcp_s, ptr %17, i32 0, i32 7
  %19 = load i32, ptr %18, align 8, !tbaa !16
  %20 = zext i32 %19 to i64
  %21 = or i64 %20, %16
  %22 = trunc i64 %21 to i32
  store i32 %22, ptr %18, align 8, !tbaa !16
  store i32 0, ptr %4, align 4
  store i32 1, ptr %10, align 4
  br label %116

23:                                               ; preds = %3
  %24 = load ptr, ptr %5, align 8, !tbaa !9
  %25 = getelementptr inbounds nuw %struct.uv_tcp_s, ptr %24, i32 0, i32 13
  %26 = getelementptr inbounds nuw %struct.uv__io_s, ptr %25, i32 0, i32 5
  %27 = load i32, ptr %26, align 8, !tbaa !22
  %28 = icmp ne i32 %27, -1
  br i1 %28, label %29, label %111

29:                                               ; preds = %23
  %30 = load i64, ptr %7, align 8, !tbaa !14
  %31 = and i64 %30, 8192
  %32 = icmp ne i64 %31, 0
  br i1 %32, label %33, label %103

33:                                               ; preds = %29
  %34 = load ptr, ptr %5, align 8, !tbaa !9
  %35 = getelementptr inbounds nuw %struct.uv_tcp_s, ptr %34, i32 0, i32 7
  %36 = load i32, ptr %35, align 8, !tbaa !16
  %37 = and i32 %36, 8192
  %38 = icmp ne i32 %37, 0
  br i1 %38, label %39, label %47

39:                                               ; preds = %33
  %40 = load i64, ptr %7, align 8, !tbaa !14
  %41 = load ptr, ptr %5, align 8, !tbaa !9
  %42 = getelementptr inbounds nuw %struct.uv_tcp_s, ptr %41, i32 0, i32 7
  %43 = load i32, ptr %42, align 8, !tbaa !16
  %44 = zext i32 %43 to i64
  %45 = or i64 %44, %40
  %46 = trunc i64 %45 to i32
  store i32 %46, ptr %42, align 8, !tbaa !16
  store i32 0, ptr %4, align 4
  store i32 1, ptr %10, align 4
  br label %116

47:                                               ; preds = %33
  store i32 128, ptr %9, align 4, !tbaa !11
  call void @llvm.memset.p0.i64(ptr align 8 %8, i8 0, i64 128, i1 false)
  %48 = load ptr, ptr %5, align 8, !tbaa !9
  %49 = getelementptr inbounds nuw %struct.uv_tcp_s, ptr %48, i32 0, i32 13
  %50 = getelementptr inbounds nuw %struct.uv__io_s, ptr %49, i32 0, i32 5
  %51 = load i32, ptr %50, align 8, !tbaa !22
  store ptr %8, ptr %11, align 8, !tbaa !23
  %52 = getelementptr inbounds nuw %union.__SOCKADDR_ARG, ptr %11, i32 0, i32 0
  %53 = load ptr, ptr %52, align 8
  %54 = call i32 @getsockname(i32 noundef %51, ptr %53, ptr noundef %9) #8
  %55 = icmp ne i32 %54, 0
  br i1 %55, label %56, label %60

56:                                               ; preds = %47
  %57 = call ptr @__errno_location() #9
  %58 = load i32, ptr %57, align 4, !tbaa !11
  %59 = sub nsw i32 0, %58
  store i32 %59, ptr %4, align 4
  store i32 1, ptr %10, align 4
  br label %116

60:                                               ; preds = %47
  %61 = getelementptr inbounds nuw %struct.sockaddr_storage, ptr %8, i32 0, i32 0
  %62 = load i16, ptr %61, align 8, !tbaa !24
  %63 = zext i16 %62 to i32
  %64 = icmp eq i32 %63, 10
  br i1 %64, label %65, label %70

65:                                               ; preds = %60
  %66 = getelementptr inbounds nuw %struct.sockaddr_in6, ptr %8, i32 0, i32 1
  %67 = load i16, ptr %66, align 2, !tbaa !27
  %68 = zext i16 %67 to i32
  %69 = icmp ne i32 %68, 0
  br i1 %69, label %80, label %70

70:                                               ; preds = %65, %60
  %71 = getelementptr inbounds nuw %struct.sockaddr_storage, ptr %8, i32 0, i32 0
  %72 = load i16, ptr %71, align 8, !tbaa !24
  %73 = zext i16 %72 to i32
  %74 = icmp eq i32 %73, 2
  br i1 %74, label %75, label %88

75:                                               ; preds = %70
  %76 = getelementptr inbounds nuw %struct.sockaddr_in, ptr %8, i32 0, i32 1
  %77 = load i16, ptr %76, align 2, !tbaa !30
  %78 = zext i16 %77 to i32
  %79 = icmp ne i32 %78, 0
  br i1 %79, label %80, label %88

80:                                               ; preds = %75, %65
  %81 = load i64, ptr %7, align 8, !tbaa !14
  %82 = load ptr, ptr %5, align 8, !tbaa !9
  %83 = getelementptr inbounds nuw %struct.uv_tcp_s, ptr %82, i32 0, i32 7
  %84 = load i32, ptr %83, align 8, !tbaa !16
  %85 = zext i32 %84 to i64
  %86 = or i64 %85, %81
  %87 = trunc i64 %86 to i32
  store i32 %87, ptr %83, align 8, !tbaa !16
  store i32 0, ptr %4, align 4
  store i32 1, ptr %10, align 4
  br label %116

88:                                               ; preds = %75, %70
  %89 = load ptr, ptr %5, align 8, !tbaa !9
  %90 = getelementptr inbounds nuw %struct.uv_tcp_s, ptr %89, i32 0, i32 13
  %91 = getelementptr inbounds nuw %struct.uv__io_s, ptr %90, i32 0, i32 5
  %92 = load i32, ptr %91, align 8, !tbaa !22
  store ptr %8, ptr %12, align 8, !tbaa !23
  %93 = load i32, ptr %9, align 4, !tbaa !11
  %94 = getelementptr inbounds nuw %union.__CONST_SOCKADDR_ARG, ptr %12, i32 0, i32 0
  %95 = load ptr, ptr %94, align 8
  %96 = call i32 @bind(i32 noundef %92, ptr %95, i32 noundef %93) #8
  %97 = icmp ne i32 %96, 0
  br i1 %97, label %98, label %102

98:                                               ; preds = %88
  %99 = call ptr @__errno_location() #9
  %100 = load i32, ptr %99, align 4, !tbaa !11
  %101 = sub nsw i32 0, %100
  store i32 %101, ptr %4, align 4
  store i32 1, ptr %10, align 4
  br label %116

102:                                              ; preds = %88
  br label %103

103:                                              ; preds = %102, %29
  %104 = load i64, ptr %7, align 8, !tbaa !14
  %105 = load ptr, ptr %5, align 8, !tbaa !9
  %106 = getelementptr inbounds nuw %struct.uv_tcp_s, ptr %105, i32 0, i32 7
  %107 = load i32, ptr %106, align 8, !tbaa !16
  %108 = zext i32 %107 to i64
  %109 = or i64 %108, %104
  %110 = trunc i64 %109 to i32
  store i32 %110, ptr %106, align 8, !tbaa !16
  store i32 0, ptr %4, align 4
  store i32 1, ptr %10, align 4
  br label %116

111:                                              ; preds = %23
  %112 = load ptr, ptr %5, align 8, !tbaa !9
  %113 = load i32, ptr %6, align 4, !tbaa !11
  %114 = load i64, ptr %7, align 8, !tbaa !14
  %115 = call i32 @new_socket(ptr noundef %112, i32 noundef %113, i64 noundef %114)
  store i32 %115, ptr %4, align 4
  store i32 1, ptr %10, align 4
  br label %116

116:                                              ; preds = %111, %103, %98, %80, %56, %39, %15
  call void @llvm.lifetime.end.p0(i64 4, ptr %9) #8
  call void @llvm.lifetime.end.p0(i64 128, ptr %8) #8
  %117 = load i32, ptr %4, align 4
  ret i32 %117
}

; Function Attrs: nounwind uwtable
define dso_local i32 @uv_tcp_init_ex(ptr noundef %0, ptr noundef %1, i32 noundef %2) #0 {
  %4 = alloca i32, align 4
  %5 = alloca ptr, align 8
  %6 = alloca ptr, align 8
  %7 = alloca i32, align 4
  %8 = alloca i32, align 4
  %9 = alloca i32, align 4
  %10 = alloca i32, align 4
  store ptr %0, ptr %5, align 8, !tbaa !4
  store ptr %1, ptr %6, align 8, !tbaa !9
  store i32 %2, ptr %7, align 4, !tbaa !11
  call void @llvm.lifetime.start.p0(i64 4, ptr %8) #8
  %11 = load i32, ptr %7, align 4, !tbaa !11
  %12 = and i32 %11, 255
  store i32 %12, ptr %8, align 4, !tbaa !11
  %13 = load i32, ptr %8, align 4, !tbaa !11
  %14 = icmp ne i32 %13, 2
  br i1 %14, label %15, label %22

15:                                               ; preds = %3
  %16 = load i32, ptr %8, align 4, !tbaa !11
  %17 = icmp ne i32 %16, 10
  br i1 %17, label %18, label %22

18:                                               ; preds = %15
  %19 = load i32, ptr %8, align 4, !tbaa !11
  %20 = icmp ne i32 %19, 0
  br i1 %20, label %21, label %22

21:                                               ; preds = %18
  store i32 -22, ptr %4, align 4
  store i32 1, ptr %9, align 4
  br label %66

22:                                               ; preds = %18, %15, %3
  %23 = load i32, ptr %7, align 4, !tbaa !11
  %24 = and i32 %23, -256
  %25 = icmp ne i32 %24, 0
  br i1 %25, label %26, label %27

26:                                               ; preds = %22
  store i32 -22, ptr %4, align 4
  store i32 1, ptr %9, align 4
  br label %66

27:                                               ; preds = %22
  %28 = load ptr, ptr %5, align 8, !tbaa !4
  %29 = load ptr, ptr %6, align 8, !tbaa !9
  call void @uv__stream_init(ptr noundef %28, ptr noundef %29, i32 noundef 12)
  %30 = load i32, ptr %8, align 4, !tbaa !11
  %31 = icmp ne i32 %30, 0
  br i1 %31, label %32, label %65

32:                                               ; preds = %27
  call void @llvm.lifetime.start.p0(i64 4, ptr %10) #8
  %33 = load ptr, ptr %6, align 8, !tbaa !9
  %34 = load i32, ptr %8, align 4, !tbaa !11
  %35 = call i32 @maybe_new_socket(ptr noundef %33, i32 noundef %34, i64 noundef 0)
  store i32 %35, ptr %10, align 4, !tbaa !11
  %36 = load i32, ptr %10, align 4, !tbaa !11
  %37 = icmp ne i32 %36, 0
  br i1 %37, label %38, label %61

38:                                               ; preds = %32
  br label %39

39:                                               ; preds = %38
  %40 = load ptr, ptr %6, align 8, !tbaa !9
  %41 = getelementptr inbounds nuw %struct.uv_tcp_s, ptr %40, i32 0, i32 4
  %42 = getelementptr inbounds [2 x ptr], ptr %41, i64 0, i64 0
  %43 = load ptr, ptr %42, align 8, !tbaa !13
  %44 = load ptr, ptr %6, align 8, !tbaa !9
  %45 = getelementptr inbounds nuw %struct.uv_tcp_s, ptr %44, i32 0, i32 4
  %46 = getelementptr inbounds [2 x ptr], ptr %45, i64 0, i64 1
  %47 = load ptr, ptr %46, align 8, !tbaa !13
  %48 = getelementptr inbounds [2 x ptr], ptr %47, i64 0, i64 0
  store ptr %43, ptr %48, align 8, !tbaa !13
  %49 = load ptr, ptr %6, align 8, !tbaa !9
  %50 = getelementptr inbounds nuw %struct.uv_tcp_s, ptr %49, i32 0, i32 4
  %51 = getelementptr inbounds [2 x ptr], ptr %50, i64 0, i64 1
  %52 = load ptr, ptr %51, align 8, !tbaa !13
  %53 = load ptr, ptr %6, align 8, !tbaa !9
  %54 = getelementptr inbounds nuw %struct.uv_tcp_s, ptr %53, i32 0, i32 4
  %55 = getelementptr inbounds [2 x ptr], ptr %54, i64 0, i64 0
  %56 = load ptr, ptr %55, align 8, !tbaa !13
  %57 = getelementptr inbounds [2 x ptr], ptr %56, i64 0, i64 1
  store ptr %52, ptr %57, align 8, !tbaa !13
  br label %58

58:                                               ; preds = %39
  br label %59

59:                                               ; preds = %58
  %60 = load i32, ptr %10, align 4, !tbaa !11
  store i32 %60, ptr %4, align 4
  store i32 1, ptr %9, align 4
  br label %62

61:                                               ; preds = %32
  store i32 0, ptr %9, align 4
  br label %62

62:                                               ; preds = %61, %59
  call void @llvm.lifetime.end.p0(i64 4, ptr %10) #8
  %63 = load i32, ptr %9, align 4
  switch i32 %63, label %66 [
    i32 0, label %64
  ]

64:                                               ; preds = %62
  br label %65

65:                                               ; preds = %64, %27
  store i32 0, ptr %4, align 4
  store i32 1, ptr %9, align 4
  br label %66

66:                                               ; preds = %65, %62, %26, %21
  call void @llvm.lifetime.end.p0(i64 4, ptr %8) #8
  %67 = load i32, ptr %4, align 4
  ret i32 %67
}