; Function Attrs: nounwind uwtable
define dso_local i32 @uv_tcp_init_ex(ptr noundef %0, ptr noundef %1, i32 noundef %2) local_unnamed_addr #0 {
  %4 = and i32 %2, 255
  %5 = and i32 %2, 247
  %or.cond = icmp eq i32 %5, 2
  %6 = icmp eq i32 %4, 0
  %or.cond3.not27 = or i1 %or.cond, %6
  %.not = icmp ult i32 %2, 256
  %or.cond23 = and i1 %.not, %or.cond3.not27
  br i1 %or.cond23, label %7, label %.critedge

7:                                                ; preds = %3
  tail call void @uv__stream_init(ptr noundef %0, ptr noundef %1, i32 noundef 12) #8
  br i1 %6, label %.critedge, label %8

8:                                                ; preds = %7
  %9 = getelementptr inbounds nuw i8, ptr %1, i64 184
  %10 = load i32, ptr %9, align 8, !tbaa !4
  %.not.i = icmp eq i32 %10, -1
  br i1 %.not.i, label %11, label %.critedge

11:                                               ; preds = %8
  %12 = tail call i32 @uv__socket(i32 noundef range(i32 1, 65536) %4, i32 noundef 1, i32 noundef 0) #8
  %13 = icmp slt i32 %12, 0
  br i1 %13, label %maybe_new_socket.exit, label %14

14:                                               ; preds = %11
  %15 = tail call i32 @uv__stream_open(ptr noundef nonnull %1, i32 noundef %12, i32 noundef 0) #8
  %.not.i.i = icmp eq i32 %15, 0
  br i1 %.not.i.i, label %.critedge, label %16

16:                                               ; preds = %14
  %17 = tail call i32 @uv__close(i32 noundef %12) #8
  br label %maybe_new_socket.exit

maybe_new_socket.exit:                            ; preds = %16, %11
  %.0.i = phi i32 [ %15, %16 ], [ %12, %11 ]
  %18 = getelementptr inbounds nuw i8, ptr %1, i64 32
  %19 = load ptr, ptr %18, align 8, !tbaa !16
  %20 = getelementptr inbounds nuw i8, ptr %1, i64 40
  %21 = load ptr, ptr %20, align 8, !tbaa !16
  store ptr %19, ptr %21, align 8, !tbaa !16
  %22 = load ptr, ptr %20, align 8, !tbaa !16
  %23 = getelementptr inbounds nuw i8, ptr %19, i64 8
  store ptr %22, ptr %23, align 8, !tbaa !16
  br label %.critedge

.critedge:                                        ; preds = %8, %14, %7, %maybe_new_socket.exit, %3
  %.0 = phi i32 [ %.0.i, %maybe_new_socket.exit ], [ -22, %3 ], [ 0, %7 ], [ 0, %14 ], [ 0, %8 ]
  ret i32 %.0
}